target datalayout = "e-m:e-p270:32:32-p271:32:32-p272:64:64-i64:64-i128:128-f80:128-n8:16:32:64-S128"
target triple = "x86_64-pc-linux-gnu"

%struct.sp_int = type { i16, i16, [129 x i64] }
%struct.ecc_key = type { i32, i32, i32, i32, ptr, ptr, %struct.ecc_point, [1 x %struct.sp_int], ptr }
%struct.ecc_point = type { [1 x %struct.sp_int], [1 x %struct.sp_int], [1 x %struct.sp_int], i8 }
%struct.ecc_set_type = type { i32, i32, ptr, ptr, ptr, ptr, ptr, ptr, ptr, ptr, i32, i32, i32 }

@devId = internal global i32 -2, align 4

; Function Attrs: nounwind uwtable
define internal i32 @ecc_mulmod_test(ptr noundef %0) #0 {
  %2 = alloca ptr, align 8
  %3 = alloca i32, align 4
  %4 = alloca [1 x %struct.ecc_key], align 16
  %5 = alloca [1 x %struct.ecc_key], align 16
  store ptr %0, ptr %2, align 8, !tbaa !175
  call void @llvm.lifetime.start.p0(i64 4, ptr %3) #10
  call void @llvm.lifetime.start.p0(i64 4208, ptr %4) #10
  call void @llvm.lifetime.start.p0(i64 4208, ptr %5) #10
  %6 = getelementptr inbounds [1 x %struct.ecc_key], ptr %4, i64 0, i64 0
  %7 = load i32, ptr @devId, align 4, !tbaa !14
  %8 = call i32 @wc_ecc_init_ex(ptr noundef %6, ptr noundef null, i32 noundef %7)
  %9 = getelementptr inbounds [1 x %struct.ecc_key], ptr %5, i64 0, i64 0
  %10 = load i32, ptr @devId, align 4, !tbaa !14
  %11 = call i32 @wc_ecc_init_ex(ptr noundef %9, ptr noundef null, i32 noundef %10)
  %12 = getelementptr inbounds [1 x %struct.ecc_key], ptr %4, i64 0, i64 0
  %13 = load ptr, ptr %2, align 8, !tbaa !175
  %14 = getelementptr inbounds nuw %struct.ecc_key, ptr %13, i32 0, i32 4
  %15 = load ptr, ptr %14, align 8, !tbaa !182
  %16 = getelementptr inbounds nuw %struct.ecc_set_type, ptr %15, i32 0, i32 7
  %17 = load ptr, ptr %16, align 8, !tbaa !218
  %18 = load ptr, ptr %2, align 8, !tbaa !175
  %19 = getelementptr inbounds nuw %struct.ecc_key, ptr %18, i32 0, i32 4
  %20 = load ptr, ptr %19, align 8, !tbaa !182
  %21 = getelementptr inbounds nuw %struct.ecc_set_type, ptr %20, i32 0, i32 8
  %22 = load ptr, ptr %21, align 8, !tbaa !219
  %23 = load ptr, ptr %2, align 8, !tbaa !175
  %24 = getelementptr inbounds nuw %struct.ecc_key, ptr %23, i32 0, i32 4
  %25 = load ptr, ptr %24, align 8, !tbaa !182
  %26 = getelementptr inbounds nuw %struct.ecc_set_type, ptr %25, i32 0, i32 4
  %27 = load ptr, ptr %26, align 8, !tbaa !220
  %28 = call i32 @wc_ecc_import_raw_ex(ptr noundef %12, ptr noundef %17, ptr noundef %22, ptr noundef %27, i32 noundef 7)
  store i32 %28, ptr %3, align 4, !tbaa !14
  %29 = load i32, ptr %3, align 4, !tbaa !14
  %30 = icmp ne i32 %29, 0
  br i1 %30, label %31, label %32

31:                                               ; preds = %1
  br label %86

32:                                               ; preds = %1
  %33 = getelementptr inbounds [1 x %struct.ecc_key], ptr %5, i64 0, i64 0
  %34 = load ptr, ptr %2, align 8, !tbaa !175
  %35 = getelementptr inbounds nuw %struct.ecc_key, ptr %34, i32 0, i32 4
  %36 = load ptr, ptr %35, align 8, !tbaa !182
  %37 = getelementptr inbounds nuw %struct.ecc_set_type, ptr %36, i32 0, i32 7
  %38 = load ptr, ptr %37, align 8, !tbaa !218
  %39 = load ptr, ptr %2, align 8, !tbaa !175
  %40 = getelementptr inbounds nuw %struct.ecc_key, ptr %39, i32 0, i32 4
  %41 = load ptr, ptr %40, align 8, !tbaa !182
  %42 = getelementptr inbounds nuw %struct.ecc_set_type, ptr %41, i32 0, i32 8
  %43 = load ptr, ptr %42, align 8, !tbaa !219
  %44 = load ptr, ptr %2, align 8, !tbaa !175
  %45 = getelementptr inbounds nuw %struct.ecc_key, ptr %44, i32 0, i32 4
  %46 = load ptr, ptr %45, align 8, !tbaa !182
  %47 = getelementptr inbounds nuw %struct.ecc_set_type, ptr %46, i32 0, i32 3
  %48 = load ptr, ptr %47, align 8, !tbaa !221
  %49 = call i32 @wc_ecc_import_raw_ex(ptr noundef %33, ptr noundef %38, ptr noundef %43, ptr noundef %48, i32 noundef 7)
  store i32 %49, ptr %3, align 4, !tbaa !14
  %50 = load i32, ptr %3, align 4, !tbaa !14
  %51 = icmp ne i32 %50, 0
  br i1 %51, label %52, label %53

52:                                               ; preds = %32
  br label %86

53:                                               ; preds = %32
  %54 = load ptr, ptr %2, align 8, !tbaa !175
  %55 = getelementptr inbounds nuw %struct.ecc_key, ptr %54, i32 0, i32 7
  %56 = getelementptr inbounds [1 x %struct.sp_int], ptr %55, i64 0, i64 0
  %57 = getelementptr inbounds [1 x %struct.ecc_key], ptr %4, i64 0, i64 0
  %58 = getelementptr inbounds nuw %struct.ecc_key, ptr %57, i32 0, i32 6
  %59 = getelementptr inbounds [1 x %struct.ecc_key], ptr %5, i64 0, i64 0
  %60 = getelementptr inbounds nuw %struct.ecc_key, ptr %59, i32 0, i32 6
  %61 = getelementptr inbounds [1 x %struct.ecc_key], ptr %4, i64 0, i64 0
  %62 = getelementptr inbounds nuw %struct.ecc_key, ptr %61, i32 0, i32 7
  %63 = getelementptr inbounds [1 x %struct.sp_int], ptr %62, i64 0, i64 0
  %64 = getelementptr inbounds [1 x %struct.ecc_key], ptr %5, i64 0, i64 0
  %65 = getelementptr inbounds nuw %struct.ecc_key, ptr %64, i32 0, i32 7
  %66 = getelementptr inbounds [1 x %struct.sp_int], ptr %65, i64 0, i64 0
  %67 = call i32 @wc_ecc_mulmod(ptr noundef %56, ptr noundef %58, ptr noundef %60, ptr noundef %63, ptr noundef %66, i32 noundef 1)
  store i32 %67, ptr %3, align 4, !tbaa !14
  %68 = load i32, ptr %3, align 4, !tbaa !14
  %69 = icmp ne i32 %68, 0
  br i1 %69, label %70, label %85

70:                                               ; preds = %53
  br label %71

71:                                               ; preds = %70
  %72 = load i32, ptr %3, align 4, !tbaa !14
  %73 = sub nsw i32 0, %72
  %74 = zext i32 %73 to i64
  %75 = and i64 %74, 2047
  %76 = trunc i64 %75 to i32
  %77 = sext i32 %76 to i64
  %78 = mul nsw i64 %77, 100000
  %79 = add nsw i64 31839, %78
  %80 = add nsw i64 %79, 536870912
  %81 = sub nsw i64 0, %80
  %82 = trunc i64 %81 to i32
  store i32 %82, ptr %3, align 4, !tbaa !14
  br label %86

83:                                               ; No predecessors!
  br label %84

84:                                               ; preds = %83
  br label %85

85:                                               ; preds = %84, %53
  br label %86

86:                                               ; preds = %85, %71, %52, %31
  %87 = getelementptr inbounds [1 x %struct.ecc_key], ptr %5, i64 0, i64 0
  %88 = call i32 @wc_ecc_free(ptr noundef %87)
  %89 = getelementptr inbounds [1 x %struct.ecc_key], ptr %4, i64 0, i64 0
  %90 = call i32 @wc_ecc_free(ptr noundef %89)
  %91 = load i32, ptr %3, align 4, !tbaa !14
  call void @llvm.lifetime.end.p0(i64 4208, ptr %5) #10
  call void @llvm.lifetime.end.p0(i64 4208, ptr %4) #10
  call void @llvm.lifetime.end.p0(i64 4, ptr %3) #10
  ret i32 %91
}