; Function Attrs: nounwind uwtable
define internal fastcc i32 @ecc_mulmod_test(ptr noundef nonnull %0) unnamed_addr #0 {
  %2 = alloca [1 x %struct.ecc_key], align 16
  %3 = alloca [1 x %struct.ecc_key], align 16
  call void @llvm.lifetime.start.p0(i64 4208, ptr nonnull %2) #19
  call void @llvm.lifetime.start.p0(i64 4208, ptr nonnull %3) #19
  %4 = call i32 @wc_ecc_init_ex(ptr noundef nonnull %2, ptr noundef null, i32 noundef -2) #19
  %5 = call i32 @wc_ecc_init_ex(ptr noundef nonnull %3, ptr noundef null, i32 noundef -2) #19
  %6 = getelementptr inbounds nuw i8, ptr %0, i64 16
  %7 = load ptr, ptr %6, align 8, !tbaa !156
  %8 = getelementptr inbounds nuw i8, ptr %7, i64 48
  %9 = load ptr, ptr %8, align 8, !tbaa !169
  %10 = getelementptr inbounds nuw i8, ptr %7, i64 56
  %11 = load ptr, ptr %10, align 8, !tbaa !170
  %12 = getelementptr inbounds nuw i8, ptr %7, i64 24
  %13 = load ptr, ptr %12, align 8, !tbaa !171
  %14 = call i32 @wc_ecc_import_raw_ex(ptr noundef nonnull %2, ptr noundef %9, ptr noundef %11, ptr noundef %13, i32 noundef 7) #19
  %.not = icmp eq i32 %14, 0
  br i1 %.not, label %15, label %35

15:                                               ; preds = %1
  %16 = load ptr, ptr %6, align 8, !tbaa !156
  %17 = getelementptr inbounds nuw i8, ptr %16, i64 48
  %18 = load ptr, ptr %17, align 8, !tbaa !169
  %19 = getelementptr inbounds nuw i8, ptr %16, i64 56
  %20 = load ptr, ptr %19, align 8, !tbaa !170
  %21 = getelementptr inbounds nuw i8, ptr %16, i64 16
  %22 = load ptr, ptr %21, align 8, !tbaa !172
  %23 = call i32 @wc_ecc_import_raw_ex(ptr noundef nonnull %3, ptr noundef %18, ptr noundef %20, ptr noundef %22, i32 noundef 7) #19
  %.not14 = icmp eq i32 %23, 0
  br i1 %.not14, label %24, label %35

24:                                               ; preds = %15
  %25 = getelementptr inbounds nuw i8, ptr %0, i64 3160
  %26 = getelementptr inbounds nuw i8, ptr %2, i64 32
  %27 = getelementptr inbounds nuw i8, ptr %3, i64 32
  %28 = getelementptr inbounds nuw i8, ptr %2, i64 3160
  %29 = getelementptr inbounds nuw i8, ptr %3, i64 3160
  %30 = call i32 @wc_ecc_mulmod(ptr noundef nonnull %25, ptr noundef nonnull %26, ptr noundef nonnull %27, ptr noundef nonnull %28, ptr noundef nonnull %29, i32 noundef 1) #19
  %.not15 = icmp eq i32 %30, 0
  br i1 %.not15, label %35, label %31

31:                                               ; preds = %24
  %32 = sub nsw i32 0, %30
  %33 = and i32 %32, 2047
  %narrow.neg = mul nsw i32 %33, -100000
  %34 = add nsw i32 %narrow.neg, -536902751
  br label %35

35:                                               ; preds = %24, %15, %1, %31
  %.0 = phi i32 [ %14, %1 ], [ %23, %15 ], [ %34, %31 ], [ 0, %24 ]
  %36 = call i32 @wc_ecc_free(ptr noundef nonnull %3) #19
  %37 = call i32 @wc_ecc_free(ptr noundef nonnull %2) #19
  call void @llvm.lifetime.end.p0(i64 4208, ptr nonnull %3) #19
  call void @llvm.lifetime.end.p0(i64 4208, ptr nonnull %2) #19
  ret i32 %.0
}